target datalayout = "e-m:e-p270:32:32-p271:32:32-p272:64:64-i64:64-i128:128-f80:128-n8:16:32:64-S128"
target triple = "x86_64-pc-linux-gnu"

%struct.gmx_neutron_atomic_structurefactors_t = type { i32, ptr, ptr, ptr, ptr }
%struct.gmx_sans_t = type { ptr, ptr }
%struct.t_topology = type { ptr, %struct.t_idef, %struct.t_atoms, %struct.t_block, i8, %struct.t_symtab }
%struct.t_idef = type { i32, i32, ptr, ptr, float, ptr, ptr, [95 x %struct.t_ilist], i32 }
%struct.t_ilist = type { i32, ptr, i32 }
%struct.t_atoms = type { i32, ptr, ptr, ptr, ptr, i32, ptr, ptr, i8, i8, i8, i8, i8 }
%struct.t_block = type { i32, ptr, i32 }
%struct.t_symtab = type { i32, ptr }
%struct.t_atom = type { float, float, float, float, i16, i16, i32, i32, i32, [4 x i8] }

@.str = private unnamed_addr constant [125 x i8] c"generated/home/dtcxzyw/WorkSpace/Projects/compilers/llvm-opt-benchmark/bench/gromacs/gromacs/src/gromacs/gmxana/nsfactor.cpp\00", align 1
@.str.11 = private unnamed_addr constant [6 x i8] c"gsans\00", align 1
@.str.12 = private unnamed_addr constant [15 x i8] c"gsans->slength\00", align 1

; Function Attrs: inlinehint mustprogress uwtable
define internal void @_ZL13gmx_snew_implIdEvPKcS1_iRPT_m(ptr noundef %0, ptr noundef %1, i32 noundef %2, ptr noundef nonnull align 8 dereferenceable(8) %3, i64 noundef %4) #8 {
  %6 = alloca ptr, align 8
  %7 = alloca ptr, align 8
  %8 = alloca i32, align 4
  %9 = alloca ptr, align 8
  %10 = alloca i64, align 8
  store ptr %0, ptr %6, align 8, !tbaa !11
  store ptr %1, ptr %7, align 8, !tbaa !11
  store i32 %2, ptr %8, align 4, !tbaa !66
  store ptr %3, ptr %9, align 8, !tbaa !95
  store i64 %4, ptr %10, align 8, !tbaa !16
  %11 = load ptr, ptr %6, align 8, !tbaa !11
  %12 = load ptr, ptr %7, align 8, !tbaa !11
  %13 = load i32, ptr %8, align 4, !tbaa !66
  %14 = load i64, ptr %10, align 8, !tbaa !16
  %15 = call noundef ptr @_Z11save_callocPKcS0_imm(ptr noundef %11, ptr noundef %12, i32 noundef %13, i64 noundef %14, i64 noundef 8)
  %16 = load ptr, ptr %9, align 8, !tbaa !95
  store ptr %15, ptr %16, align 8, !tbaa !68
  ret void
}

; Function Attrs: inlinehint mustprogress uwtable
define internal void @_ZL13gmx_snew_implI10gmx_sans_tEvPKcS2_iRPT_m(ptr noundef %0, ptr noundef %1, i32 noundef %2, ptr noundef nonnull align 8 dereferenceable(8) %3, i64 noundef %4) #8 {
  %6 = alloca ptr, align 8
  %7 = alloca ptr, align 8
  %8 = alloca i32, align 4
  %9 = alloca ptr, align 8
  %10 = alloca i64, align 8
  store ptr %0, ptr %6, align 8, !tbaa !11
  store ptr %1, ptr %7, align 8, !tbaa !11
  store i32 %2, ptr %8, align 4, !tbaa !66
  store ptr %3, ptr %9, align 8, !tbaa !142
  store i64 %4, ptr %10, align 8, !tbaa !16
  %11 = load ptr, ptr %6, align 8, !tbaa !11
  %12 = load ptr, ptr %7, align 8, !tbaa !11
  %13 = load i32, ptr %8, align 4, !tbaa !66
  %14 = load i64, ptr %10, align 8, !tbaa !16
  %15 = call noundef ptr @_Z11save_callocPKcS0_imm(ptr noundef %11, ptr noundef %12, i32 noundef %13, i64 noundef %14, i64 noundef 16)
  %16 = load ptr, ptr %9, align 8, !tbaa !142
  store ptr %15, ptr %16, align 8, !tbaa !117
  ret void
}

; Function Attrs: mustprogress uwtable
define noundef ptr @_Z13gmx_sans_initPK10t_topologyP37gmx_neutron_atomic_structurefactors_t(ptr noundef %0, ptr noundef %1) #0 {
  %3 = alloca ptr, align 8
  %4 = alloca ptr, align 8
  %5 = alloca ptr, align 8
  %6 = alloca i32, align 4
  %7 = alloca i32, align 4
  store ptr %0, ptr %3, align 8, !tbaa !115
  store ptr %1, ptr %4, align 8, !tbaa !75
  call void @llvm.lifetime.start.p0(i64 8, ptr %5) #15
  store ptr null, ptr %5, align 8, !tbaa !117
  call void @llvm.lifetime.start.p0(i64 4, ptr %6) #15
  call void @llvm.lifetime.start.p0(i64 4, ptr %7) #15
  call void @_ZL13gmx_snew_implI10gmx_sans_tEvPKcS2_iRPT_m(ptr noundef @.str.11, ptr noundef @.str, i32 noundef 162, ptr noundef nonnull align 8 dereferenceable(8) %5, i64 noundef 1)
  %8 = load ptr, ptr %5, align 8, !tbaa !117
  %9 = getelementptr inbounds nuw %struct.gmx_sans_t, ptr %8, i32 0, i32 1
  %10 = load ptr, ptr %3, align 8, !tbaa !115
  %11 = getelementptr inbounds nuw %struct.t_topology, ptr %10, i32 0, i32 2
  %12 = getelementptr inbounds nuw %struct.t_atoms, ptr %11, i32 0, i32 0
  %13 = load i32, ptr %12, align 8, !tbaa !119
  %14 = sext i32 %13 to i64
  call void @_ZL13gmx_snew_implIdEvPKcS1_iRPT_m(ptr noundef @.str.12, ptr noundef @.str, i32 noundef 163, ptr noundef nonnull align 8 dereferenceable(8) %9, i64 noundef %14)
  %15 = load ptr, ptr %3, align 8, !tbaa !115
  %16 = load ptr, ptr %5, align 8, !tbaa !117
  %17 = getelementptr inbounds nuw %struct.gmx_sans_t, ptr %16, i32 0, i32 0
  store ptr %15, ptr %17, align 8, !tbaa !131
  store i32 0, ptr %6, align 4, !tbaa !66
  br label %18

18:                                               ; preds = %118, %2
  %19 = load i32, ptr %6, align 4, !tbaa !66
  %20 = load ptr, ptr %3, align 8, !tbaa !115
  %21 = getelementptr inbounds nuw %struct.t_topology, ptr %20, i32 0, i32 2
  %22 = getelementptr inbounds nuw %struct.t_atoms, ptr %21, i32 0, i32 0
  %23 = load i32, ptr %22, align 8, !tbaa !119
  %24 = icmp slt i32 %19, %23
  br i1 %24, label %25, label %121

25:                                               ; preds = %18
  store i32 0, ptr %7, align 4, !tbaa !66
  br label %26

26:                                               ; preds = %114, %25
  %27 = load i32, ptr %7, align 4, !tbaa !66
  %28 = load ptr, ptr %4, align 8, !tbaa !75
  %29 = getelementptr inbounds nuw %struct.gmx_neutron_atomic_structurefactors_t, ptr %28, i32 0, i32 0
  %30 = load i32, ptr %29, align 8, !tbaa !77
  %31 = icmp slt i32 %27, %30
  br i1 %31, label %32, label %117

32:                                               ; preds = %26
  %33 = load ptr, ptr %3, align 8, !tbaa !115
  %34 = getelementptr inbounds nuw %struct.t_topology, ptr %33, i32 0, i32 2
  %35 = getelementptr inbounds nuw %struct.t_atoms, ptr %34, i32 0, i32 1
  %36 = load ptr, ptr %35, align 8, !tbaa !133
  %37 = load i32, ptr %6, align 4, !tbaa !66
  %38 = sext i32 %37 to i64
  %39 = getelementptr inbounds %struct.t_atom, ptr %36, i64 %38
  %40 = getelementptr inbounds nuw %struct.t_atom, ptr %39, i32 0, i32 8
  %41 = load i32, ptr %40, align 4, !tbaa !134
  %42 = load ptr, ptr %4, align 8, !tbaa !75
  %43 = getelementptr inbounds nuw %struct.gmx_neutron_atomic_structurefactors_t, ptr %42, i32 0, i32 1
  %44 = load ptr, ptr %43, align 8, !tbaa !82
  %45 = load i32, ptr %7, align 4, !tbaa !66
  %46 = sext i32 %45 to i64
  %47 = getelementptr inbounds i32, ptr %44, i64 %46
  %48 = load i32, ptr %47, align 4, !tbaa !66
  %49 = icmp eq i32 %41, %48
  br i1 %49, label %50, label %113

50:                                               ; preds = %32
  %51 = load ptr, ptr %3, align 8, !tbaa !115
  %52 = getelementptr inbounds nuw %struct.t_topology, ptr %51, i32 0, i32 2
  %53 = getelementptr inbounds nuw %struct.t_atoms, ptr %52, i32 0, i32 1
  %54 = load ptr, ptr %53, align 8, !tbaa !133
  %55 = load i32, ptr %6, align 4, !tbaa !66
  %56 = sext i32 %55 to i64
  %57 = getelementptr inbounds %struct.t_atom, ptr %54, i64 %56
  %58 = getelementptr inbounds nuw %struct.t_atom, ptr %57, i32 0, i32 8
  %59 = load i32, ptr %58, align 4, !tbaa !134
  %60 = icmp eq i32 %59, 1
  br i1 %60, label %61, label %98

61:                                               ; preds = %50
  %62 = load ptr, ptr %3, align 8, !tbaa !115
  %63 = getelementptr inbounds nuw %struct.t_topology, ptr %62, i32 0, i32 2
  %64 = getelementptr inbounds nuw %struct.t_atoms, ptr %63, i32 0, i32 1
  %65 = load ptr, ptr %64, align 8, !tbaa !133
  %66 = load i32, ptr %6, align 4, !tbaa !66
  %67 = sext i32 %66 to i64
  %68 = getelementptr inbounds %struct.t_atom, ptr %65, i64 %67
  %69 = getelementptr inbounds nuw %struct.t_atom, ptr %68, i32 0, i32 0
  %70 = load float, ptr %69, align 4, !tbaa !138
  %71 = fpext float %70 to double
  %72 = call noundef zeroext i1 @_Z14gmx_within_tolddd(double noundef %71, double noundef 1.008000e+00, double noundef 1.000000e-03)
  br i1 %72, label %73, label %85

73:                                               ; preds = %61
  %74 = load ptr, ptr %4, align 8, !tbaa !75
  %75 = getelementptr inbounds nuw %struct.gmx_neutron_atomic_structurefactors_t, ptr %74, i32 0, i32 3
  %76 = load ptr, ptr %75, align 8, !tbaa !83
  %77 = getelementptr inbounds double, ptr %76, i64 0
  %78 = load double, ptr %77, align 8, !tbaa !70
  %79 = load ptr, ptr %5, align 8, !tbaa !117
  %80 = getelementptr inbounds nuw %struct.gmx_sans_t, ptr %79, i32 0, i32 1
  %81 = load ptr, ptr %80, align 8, !tbaa !139
  %82 = load i32, ptr %6, align 4, !tbaa !66
  %83 = sext i32 %82 to i64
  %84 = getelementptr inbounds double, ptr %81, i64 %83
  store double %78, ptr %84, align 8, !tbaa !70
  br label %97

85:                                               ; preds = %61
  %86 = load ptr, ptr %4, align 8, !tbaa !75
  %87 = getelementptr inbounds nuw %struct.gmx_neutron_atomic_structurefactors_t, ptr %86, i32 0, i32 3
  %88 = load ptr, ptr %87, align 8, !tbaa !83
  %89 = getelementptr inbounds double, ptr %88, i64 1
  %90 = load double, ptr %89, align 8, !tbaa !70
  %91 = load ptr, ptr %5, align 8, !tbaa !117
  %92 = getelementptr inbounds nuw %struct.gmx_sans_t, ptr %91, i32 0, i32 1
  %93 = load ptr, ptr %92, align 8, !tbaa !139
  %94 = load i32, ptr %6, align 4, !tbaa !66
  %95 = sext i32 %94 to i64
  %96 = getelementptr inbounds double, ptr %93, i64 %95
  store double %90, ptr %96, align 8, !tbaa !70
  br label %97

97:                                               ; preds = %85, %73
  br label %112

98:                                               ; preds = %50
  %99 = load ptr, ptr %4, align 8, !tbaa !75
  %100 = getelementptr inbounds nuw %struct.gmx_neutron_atomic_structurefactors_t, ptr %99, i32 0, i32 3
  %101 = load ptr, ptr %100, align 8, !tbaa !83
  %102 = load i32, ptr %7, align 4, !tbaa !66
  %103 = sext i32 %102 to i64
  %104 = getelementptr inbounds double, ptr %101, i64 %103
  %105 = load double, ptr %104, align 8, !tbaa !70
  %106 = load ptr, ptr %5, align 8, !tbaa !117
  %107 = getelementptr inbounds nuw %struct.gmx_sans_t, ptr %106, i32 0, i32 1
  %108 = load ptr, ptr %107, align 8, !tbaa !139
  %109 = load i32, ptr %6, align 4, !tbaa !66
  %110 = sext i32 %109 to i64
  %111 = getelementptr inbounds double, ptr %108, i64 %110
  store double %105, ptr %111, align 8, !tbaa !70
  br label %112

112:                                              ; preds = %98, %97
  br label %113

113:                                              ; preds = %112, %32
  br label %114

114:                                              ; preds = %113
  %115 = load i32, ptr %7, align 4, !tbaa !66
  %116 = add nsw i32 %115, 1
  store i32 %116, ptr %7, align 4, !tbaa !66
  br label %26, !llvm.loop !140

117:                                              ; preds = %26
  br label %118

118:                                              ; preds = %117
  %119 = load i32, ptr %6, align 4, !tbaa !66
  %120 = add nsw i32 %119, 1
  store i32 %120, ptr %6, align 4, !tbaa !66
  br label %18, !llvm.loop !141

121:                                              ; preds = %18
  %122 = load ptr, ptr %5, align 8, !tbaa !117
  call void @llvm.lifetime.end.p0(i64 4, ptr %7) #15
  call void @llvm.lifetime.end.p0(i64 4, ptr %6) #15
  call void @llvm.lifetime.end.p0(i64 8, ptr %5) #15
  ret ptr %122
}