; Function Attrs: mustprogress uwtable
define noundef ptr @_Z13gmx_sans_initPK10t_topologyP37gmx_neutron_atomic_structurefactors_t(ptr noundef %0, ptr noundef readonly captures(none) %1) local_unnamed_addr #0 {
  %3 = tail call noundef ptr @_Z11save_callocPKcS0_imm(ptr noundef nonnull @.str.11, ptr noundef nonnull @.str, i32 noundef 162, i64 noundef 1, i64 noundef 16)
  %4 = getelementptr inbounds nuw i8, ptr %3, i64 8
  %5 = getelementptr inbounds nuw i8, ptr %0, i64 2344
  %6 = load i32, ptr %5, align 8, !tbaa !42
  %7 = sext i32 %6 to i64
  %8 = tail call noundef ptr @_Z11save_callocPKcS0_imm(ptr noundef nonnull @.str.12, ptr noundef nonnull @.str, i32 noundef 163, i64 noundef range(i64 -2147483648, 2147483648) %7, i64 noundef 8)
  store ptr %8, ptr %4, align 8, !tbaa !29
  store ptr %0, ptr %3, align 8, !tbaa !57
  %9 = load i32, ptr %5, align 8, !tbaa !42
  %10 = icmp sgt i32 %9, 0
  br i1 %10, label %.preheader.lr.ph, label %._crit_edge31

.preheader.lr.ph:                                 ; preds = %2
  %11 = getelementptr inbounds nuw i8, ptr %0, i64 2352
  %12 = getelementptr inbounds nuw i8, ptr %1, i64 8
  %13 = getelementptr inbounds nuw i8, ptr %1, i64 24
  %14 = load i32, ptr %1, align 8, !tbaa !31
  %15 = icmp sgt i32 %14, 0
  br i1 %15, label %.preheader, label %._crit_edge31

.preheader:                                       ; preds = %.preheader.lr.ph, %._crit_edge
  %16 = phi i32 [ %50, %._crit_edge ], [ %9, %.preheader.lr.ph ]
  %17 = phi ptr [ %51, %._crit_edge ], [ %8, %.preheader.lr.ph ]
  %18 = phi i32 [ %52, %._crit_edge ], [ %14, %.preheader.lr.ph ]
  %indvars.iv34 = phi i64 [ %indvars.iv.next35, %._crit_edge ], [ 0, %.preheader.lr.ph ]
  %19 = icmp sgt i32 %18, 0
  br i1 %19, label %.lr.ph, label %._crit_edge

.lr.ph:                                           ; preds = %.preheader, %45
  %20 = phi ptr [ %46, %45 ], [ %17, %.preheader ]
  %indvars.iv = phi i64 [ %indvars.iv.next, %45 ], [ 0, %.preheader ]
  %21 = load ptr, ptr %11, align 8, !tbaa !60
  %22 = getelementptr inbounds nuw %struct.t_atom, ptr %21, i64 %indvars.iv34
  %23 = getelementptr inbounds nuw i8, ptr %22, i64 28
  %24 = load i32, ptr %23, align 4, !tbaa !61
  %25 = load ptr, ptr %12, align 8, !tbaa !39
  %26 = getelementptr inbounds nuw i32, ptr %25, i64 %indvars.iv
  %27 = load i32, ptr %26, align 4, !tbaa !37
  %28 = icmp eq i32 %24, %27
  br i1 %28, label %29, label %45

29:                                               ; preds = %.lr.ph
  %30 = icmp eq i32 %24, 1
  br i1 %30, label %31, label %41

31:                                               ; preds = %29
  %32 = load float, ptr %22, align 4, !tbaa !65
  %33 = fpext float %32 to double
  %34 = tail call noundef zeroext i1 @_Z14gmx_within_tolddd(double noundef %33, double noundef 1.008000e+00, double noundef 1.000000e-03)
  %35 = load ptr, ptr %13, align 8, !tbaa !40
  br i1 %34, label %36, label %38

36:                                               ; preds = %31
  %37 = load ptr, ptr %4, align 8, !tbaa !66
  br label %.sink.split

38:                                               ; preds = %31
  %39 = getelementptr inbounds nuw i8, ptr %35, i64 8
  %40 = load ptr, ptr %4, align 8, !tbaa !66
  br label %.sink.split

41:                                               ; preds = %29
  %42 = load ptr, ptr %13, align 8, !tbaa !40
  %43 = getelementptr inbounds nuw double, ptr %42, i64 %indvars.iv
  br label %.sink.split

.sink.split:                                      ; preds = %41, %38, %36
  %.sink39 = phi ptr [ %37, %36 ], [ %40, %38 ], [ %20, %41 ]
  %.sink.in = phi ptr [ %35, %36 ], [ %39, %38 ], [ %43, %41 ]
  %.sink = load double, ptr %.sink.in, align 8, !tbaa !18
  %44 = getelementptr inbounds nuw double, ptr %.sink39, i64 %indvars.iv34
  store double %.sink, ptr %44, align 8, !tbaa !18
  br label %45

45:                                               ; preds = %.sink.split, %.lr.ph
  %46 = phi ptr [ %20, %.lr.ph ], [ %.sink39, %.sink.split ]
  %indvars.iv.next = add nuw nsw i64 %indvars.iv, 1
  %47 = load i32, ptr %1, align 8, !tbaa !31
  %48 = sext i32 %47 to i64
  %49 = icmp slt i64 %indvars.iv.next, %48
  br i1 %49, label %.lr.ph, label %._crit_edge.loopexit, !llvm.loop !67

._crit_edge.loopexit:                             ; preds = %45
  %.pre = load i32, ptr %5, align 8, !tbaa !42
  br label %._crit_edge

._crit_edge:                                      ; preds = %._crit_edge.loopexit, %.preheader
  %50 = phi i32 [ %.pre, %._crit_edge.loopexit ], [ %16, %.preheader ]
  %51 = phi ptr [ %46, %._crit_edge.loopexit ], [ %17, %.preheader ]
  %52 = phi i32 [ %47, %._crit_edge.loopexit ], [ %18, %.preheader ]
  %indvars.iv.next35 = add nuw nsw i64 %indvars.iv34, 1
  %53 = sext i32 %50 to i64
  %54 = icmp slt i64 %indvars.iv.next35, %53
  br i1 %54, label %.preheader, label %._crit_edge31, !llvm.loop !68

._crit_edge31:                                    ; preds = %._crit_edge, %.preheader.lr.ph, %2
  ret ptr %3
}